; Function Attrs: mustprogress nofree norecurse nosync nounwind willreturn memory(argmem: readwrite) uwtable
define hidden void @ncnn_option_set_blob_allocator(ptr nocapture noundef writeonly %0, ptr noundef readonly %1) local_unnamed_addr #10 {
  %.not = icmp eq ptr %1, null
  br i1 %.not, label %5, label %3

3:                                                ; preds = %2
  %4 = load ptr, ptr %1, align 8
  br label %5

5:                                                ; preds = %2, %3
  %6 = phi ptr [ %4, %3 ], [ null, %2 ]
  %7 = getelementptr inbounds nuw i8, ptr %0, i64 8
  store ptr %6, ptr %7, align 8
  ret void
}